; Function Attrs: mustprogress uwtable
define void @_ZNK6icu_779VTimeZone11appendUNTILERNS_9VTZWriterERKNS_13UnicodeStringER10UErrorCode(ptr nonnull readnone align 8 captures(none) %0, ptr noundef nonnull readonly align 8 captures(none) dereferenceable(8) %1, ptr noundef nonnull align 8 dereferenceable(64) %2, ptr noundef nonnull readonly align 4 captures(none) dereferenceable(4) %3) local_unnamed_addr #2 align 2 personality ptr @__gxx_personality_v0 {
  %5 = alloca i16, align 2
  %6 = alloca i16, align 2
  %7 = load i32, ptr %3, align 4, !tbaa !31
  %8 = icmp slt i32 %7, 1
  br i1 %8, label %9, label %36

9:                                                ; preds = %4
  %10 = getelementptr inbounds nuw i8, ptr %2, i64 8
  %11 = load i16, ptr %10, align 8, !tbaa !9
  %12 = icmp slt i16 %11, 0
  %13 = ashr i16 %11, 5
  %14 = sext i16 %13 to i32
  %15 = getelementptr inbounds nuw i8, ptr %2, i64 12
  %16 = load i32, ptr %15, align 4
  %17 = select i1 %12, i32 %16, i32 %14
  %18 = icmp sgt i32 %17, 0
  br i1 %18, label %19, label %36

19:                                               ; preds = %9
  %20 = load ptr, ptr %1, align 8, !tbaa !3
  call void @llvm.lifetime.start.p0(i64 2, ptr nonnull %6)
  store i16 59, ptr %6, align 2, !tbaa !10
  %21 = call noundef nonnull align 8 dereferenceable(64) ptr @_ZN6icu_7713UnicodeString8doAppendEPKDsii(ptr noundef nonnull align 8 dereferenceable(64) %20, ptr noundef nonnull %6, i32 noundef 0, i32 noundef 1)
  call void @llvm.lifetime.end.p0(i64 2, ptr nonnull %6)
  %22 = load ptr, ptr %1, align 8, !tbaa !3
  %23 = invoke noundef nonnull align 8 dereferenceable(64) ptr @_ZN6icu_7713UnicodeString8doAppendEPKDsii(ptr noundef nonnull align 8 dereferenceable(64) %22, ptr noundef nonnull @_ZN6icu_77L10ICAL_UNTILE, i32 noundef 0, i32 noundef -1)
          to label %_ZN6icu_779VTZWriter5writeEPKDs.exit unwind label %24

24:                                               ; preds = %19
  %25 = landingpad { ptr, i32 }
          cleanup
  call void asm sideeffect "", "rm,~{memory},~{dirflag},~{fpsr},~{flags}"(ptr nonnull @_ZN6icu_77L10ICAL_UNTILE) #16, !srcloc !12
  resume { ptr, i32 } %25

_ZN6icu_779VTZWriter5writeEPKDs.exit:             ; preds = %19
  call void asm sideeffect "", "rm,~{memory},~{dirflag},~{fpsr},~{flags}"(ptr nonnull @_ZN6icu_77L10ICAL_UNTILE) #16, !srcloc !12
  %26 = load ptr, ptr %1, align 8, !tbaa !3
  call void @llvm.lifetime.start.p0(i64 2, ptr nonnull %5)
  store i16 61, ptr %5, align 2, !tbaa !10
  %27 = call noundef nonnull align 8 dereferenceable(64) ptr @_ZN6icu_7713UnicodeString8doAppendEPKDsii(ptr noundef nonnull align 8 dereferenceable(64) %26, ptr noundef nonnull %5, i32 noundef 0, i32 noundef 1)
  call void @llvm.lifetime.end.p0(i64 2, ptr nonnull %5)
  %28 = load ptr, ptr %1, align 8, !tbaa !3
  %29 = load i16, ptr %10, align 8, !tbaa !9
  %30 = icmp slt i16 %29, 0
  %31 = ashr i16 %29, 5
  %32 = sext i16 %31 to i32
  %33 = load i32, ptr %15, align 4
  %34 = select i1 %30, i32 %33, i32 %32
  %35 = call noundef nonnull align 8 dereferenceable(64) ptr @_ZN6icu_7713UnicodeString8doAppendERKS0_ii(ptr noundef nonnull align 8 dereferenceable(64) %28, ptr noundef nonnull align 8 dereferenceable(64) %2, i32 noundef 0, i32 noundef %34)
  br label %36

36:                                               ; preds = %4, %_ZN6icu_779VTZWriter5writeEPKDs.exit, %9
  ret void
}